target datalayout = "e-m:e-p270:32:32-p271:32:32-p272:64:64-i64:64-i128:128-f80:128-n8:16:32:64-S128"
target triple = "x86_64-pc-linux-gnu"

%struct._packet_info = type { ptr, ptr, i32, i32, %struct.nstime_t, %struct.nstime_t, %struct.nstime_t, i8, ptr, ptr, ptr, ptr, %struct._address, %struct._address, %struct._address, %struct._address, %struct._address, %struct._address, i32, ptr, i8, [3 x i8], %struct.anon, i32, i32, i32, i32, ptr, i8, ptr, ptr, i16, i16, i32, i32, i16, i32, i32, ptr, ptr, ptr, i8, i8, i16, i16, i16, i32, i16, i16, ptr, ptr, ptr, ptr, ptr, i32, i32 }
%struct.nstime_t = type { i64, i32 }
%struct._address = type { i32, i32, ptr, ptr }
%struct.anon = type { i8, [3 x i8] }
%struct._xmpp_attr_t = type { ptr, ptr, i32, i32, i8 }
%struct._frame_data = type <{ i32, i32, i32, i32, i32, [4 x i8], i64, ptr, ptr, ptr, i8, i16, [5 x i8], %struct.nstime_t, %struct.nstime_t, i32, i32 }>
%struct._xmpp_conv_info_t = type { ptr, ptr, ptr, ptr, i32 }
%struct._xmpp_element_t = type { ptr, ptr, ptr, ptr, ptr, ptr, i32, i32, i8 }
%struct._GList = type { ptr, ptr, ptr }

@.str = private unnamed_addr constant [3 x i8] c"id\00", align 1
@.str.1 = private unnamed_addr constant [7 x i8] c"jingle\00", align 1
@.str.2 = private unnamed_addr constant [4 x i8] c"sid\00", align 1

; Function Attrs: null_pointer_is_valid sspstrong uwtable
define hidden ptr @xmpp_get_attr(ptr noundef %0, ptr noundef %1) #0 {
  %3 = alloca ptr, align 8
  %4 = alloca ptr, align 8
  %5 = alloca ptr, align 8
  store ptr %0, ptr %3, align 8
  store ptr %1, ptr %4, align 8
  call void @llvm.lifetime.start.p0(i64 8, ptr %5) #8
  %6 = load ptr, ptr %3, align 8
  %7 = getelementptr inbounds nuw %struct._xmpp_element_t, ptr %6, i32 0, i32 3
  %8 = load ptr, ptr %7, align 8
  %9 = load ptr, ptr %4, align 8
  %10 = call ptr @g_hash_table_lookup(ptr noundef %8, ptr noundef %9)
  store ptr %10, ptr %5, align 8
  %11 = load ptr, ptr %5, align 8
  %12 = icmp ne ptr %11, null
  br i1 %12, label %19, label %13

13:                                               ; preds = %2
  %14 = load ptr, ptr %3, align 8
  %15 = getelementptr inbounds nuw %struct._xmpp_element_t, ptr %14, i32 0, i32 3
  %16 = load ptr, ptr %15, align 8
  %17 = load ptr, ptr %4, align 8
  %18 = call ptr @g_hash_table_find(ptr noundef %16, ptr noundef @attr_find_pred, ptr noundef %17)
  store ptr %18, ptr %5, align 8
  br label %19

19:                                               ; preds = %13, %2
  %20 = load ptr, ptr %5, align 8
  %21 = icmp ne ptr %20, null
  br i1 %21, label %22, label %25

22:                                               ; preds = %19
  %23 = load ptr, ptr %5, align 8
  %24 = getelementptr inbounds nuw %struct._xmpp_attr_t, ptr %23, i32 0, i32 4
  store i8 1, ptr %24, align 8
  br label %25

25:                                               ; preds = %22, %19
  %26 = load ptr, ptr %5, align 8
  call void @llvm.lifetime.end.p0(i64 8, ptr %5) #8
  ret ptr %26
}

; Function Attrs: null_pointer_is_valid sspstrong uwtable
define internal ptr @xmpp_find_element_by_name(ptr noundef %0, ptr noundef %1) #0 {
  %3 = alloca ptr, align 8
  %4 = alloca ptr, align 8
  %5 = alloca ptr, align 8
  %6 = alloca ptr, align 8
  %7 = alloca ptr, align 8
  %8 = alloca i32, align 4
  store ptr %0, ptr %4, align 8
  store ptr %1, ptr %5, align 8
  call void @llvm.lifetime.start.p0(i64 8, ptr %6) #8
  call void @llvm.lifetime.start.p0(i64 8, ptr %7) #8
  %9 = call ptr @wmem_packet_scope()
  %10 = call noalias ptr @wmem_alloc(ptr noundef %9, i64 noundef 64) #9
  store ptr %10, ptr %7, align 8
  %11 = call ptr @wmem_packet_scope()
  %12 = load ptr, ptr %5, align 8
  %13 = call noalias ptr @wmem_strdup(ptr noundef %11, ptr noundef %12)
  %14 = load ptr, ptr %7, align 8
  %15 = getelementptr inbounds nuw %struct._xmpp_element_t, ptr %14, i32 0, i32 0
  store ptr %13, ptr %15, align 8
  %16 = load ptr, ptr %4, align 8
  %17 = getelementptr inbounds nuw %struct._xmpp_element_t, ptr %16, i32 0, i32 4
  %18 = load ptr, ptr %17, align 8
  %19 = load ptr, ptr %7, align 8
  %20 = call ptr @g_list_find_custom(ptr noundef %18, ptr noundef %19, ptr noundef @xmpp_element_t_cmp)
  store ptr %20, ptr %6, align 8
  %21 = load ptr, ptr %6, align 8
  %22 = icmp ne ptr %21, null
  br i1 %22, label %23, label %25

23:                                               ; preds = %2
  %24 = load ptr, ptr %6, align 8
  store ptr %24, ptr %3, align 8
  store i32 1, ptr %8, align 4
  br label %26

25:                                               ; preds = %2
  store ptr null, ptr %3, align 8
  store i32 1, ptr %8, align 4
  br label %26

26:                                               ; preds = %25, %23
  call void @llvm.lifetime.end.p0(i64 8, ptr %7) #8
  call void @llvm.lifetime.end.p0(i64 8, ptr %6) #8
  %27 = load ptr, ptr %3, align 8
  ret ptr %27
}

; Function Attrs: null_pointer_is_valid sspstrong uwtable
define hidden void @xmpp_jingle_session_track(ptr noundef %0, ptr noundef %1, ptr noundef %2) #0 {
  %4 = alloca ptr, align 8
  %5 = alloca ptr, align 8
  %6 = alloca ptr, align 8
  %7 = alloca ptr, align 8
  %8 = alloca ptr, align 8
  %9 = alloca ptr, align 8
  %10 = alloca ptr, align 8
  %11 = alloca ptr, align 8
  %12 = alloca ptr, align 8
  %13 = alloca i32, align 4
  store ptr %0, ptr %4, align 8
  store ptr %1, ptr %5, align 8
  store ptr %2, ptr %6, align 8
  call void @llvm.lifetime.start.p0(i64 8, ptr %7) #8
  call void @llvm.lifetime.start.p0(i64 8, ptr %8) #8
  %14 = load ptr, ptr %5, align 8
  %15 = call ptr @xmpp_find_element_by_name(ptr noundef %14, ptr noundef @.str.1)
  store ptr %15, ptr %8, align 8
  %16 = load ptr, ptr %8, align 8
  %17 = icmp ne ptr %16, null
  br i1 %17, label %18, label %22

18:                                               ; preds = %3
  %19 = load ptr, ptr %8, align 8
  %20 = getelementptr inbounds nuw %struct._GList, ptr %19, i32 0, i32 0
  %21 = load ptr, ptr %20, align 8
  br label %23

22:                                               ; preds = %3
  br label %23

23:                                               ; preds = %22, %18
  %24 = phi ptr [ %21, %18 ], [ null, %22 ]
  store ptr %24, ptr %7, align 8
  %25 = load ptr, ptr %7, align 8
  %26 = icmp ne ptr %25, null
  br i1 %26, label %27, label %68

27:                                               ; preds = %23
  %28 = load ptr, ptr %4, align 8
  %29 = getelementptr inbounds nuw %struct._packet_info, ptr %28, i32 0, i32 8
  %30 = load ptr, ptr %29, align 8
  %31 = getelementptr inbounds nuw %struct._frame_data, ptr %30, i32 0, i32 11
  %32 = load i16, ptr %31, align 1
  %33 = lshr i16 %32, 3
  %34 = and i16 %33, 1
  %35 = zext i16 %34 to i32
  %36 = icmp ne i32 %35, 0
  br i1 %36, label %68, label %37

37:                                               ; preds = %27
  call void @llvm.lifetime.start.p0(i64 8, ptr %9) #8
  call void @llvm.lifetime.start.p0(i64 8, ptr %10) #8
  call void @llvm.lifetime.start.p0(i64 8, ptr %11) #8
  call void @llvm.lifetime.start.p0(i64 8, ptr %12) #8
  %38 = load ptr, ptr %5, align 8
  %39 = call ptr @xmpp_get_attr(ptr noundef %38, ptr noundef @.str)
  store ptr %39, ptr %9, align 8
  %40 = load ptr, ptr %9, align 8
  %41 = icmp ne ptr %40, null
  br i1 %41, label %43, label %42

42:                                               ; preds = %37
  store i32 1, ptr %13, align 4
  br label %65

43:                                               ; preds = %37
  %44 = load ptr, ptr %7, align 8
  %45 = call ptr @xmpp_get_attr(ptr noundef %44, ptr noundef @.str.2)
  store ptr %45, ptr %10, align 8
  %46 = load ptr, ptr %10, align 8
  %47 = icmp ne ptr %46, null
  br i1 %47, label %49, label %48

48:                                               ; preds = %43
  store i32 1, ptr %13, align 4
  br label %65

49:                                               ; preds = %43
  %50 = call ptr @wmem_file_scope()
  %51 = load ptr, ptr %9, align 8
  %52 = getelementptr inbounds nuw %struct._xmpp_attr_t, ptr %51, i32 0, i32 0
  %53 = load ptr, ptr %52, align 8
  %54 = call noalias ptr @wmem_strdup(ptr noundef %50, ptr noundef %53)
  store ptr %54, ptr %11, align 8
  %55 = call ptr @wmem_file_scope()
  %56 = load ptr, ptr %10, align 8
  %57 = getelementptr inbounds nuw %struct._xmpp_attr_t, ptr %56, i32 0, i32 0
  %58 = load ptr, ptr %57, align 8
  %59 = call noalias ptr @wmem_strdup(ptr noundef %55, ptr noundef %58)
  store ptr %59, ptr %12, align 8
  %60 = load ptr, ptr %6, align 8
  %61 = getelementptr inbounds nuw %struct._xmpp_conv_info_t, ptr %60, i32 0, i32 1
  %62 = load ptr, ptr %61, align 8
  %63 = load ptr, ptr %11, align 8
  %64 = load ptr, ptr %12, align 8
  call void @wmem_tree_insert_string(ptr noundef %62, ptr noundef %63, ptr noundef %64, i32 noundef 1)
  store i32 0, ptr %13, align 4
  br label %65

65:                                               ; preds = %49, %48, %42
  call void @llvm.lifetime.end.p0(i64 8, ptr %12) #8
  call void @llvm.lifetime.end.p0(i64 8, ptr %11) #8
  call void @llvm.lifetime.end.p0(i64 8, ptr %10) #8
  call void @llvm.lifetime.end.p0(i64 8, ptr %9) #8
  %66 = load i32, ptr %13, align 4
  switch i32 %66, label %69 [
    i32 0, label %67
  ]

67:                                               ; preds = %65
  br label %68

68:                                               ; preds = %67, %27, %23
  store i32 0, ptr %13, align 4
  br label %69

69:                                               ; preds = %68, %65
  call void @llvm.lifetime.end.p0(i64 8, ptr %8) #8
  call void @llvm.lifetime.end.p0(i64 8, ptr %7) #8
  %70 = load i32, ptr %13, align 4
  switch i32 %70, label %72 [
    i32 0, label %71
    i32 1, label %71
  ]

71:                                               ; preds = %69, %69
  ret void

72:                                               ; preds = %69
  unreachable
}