; Function Attrs: null_pointer_is_valid sspstrong uwtable
define hidden void @xmpp_jingle_session_track(ptr noundef readonly captures(none) %0, ptr noundef readonly captures(none) %1, ptr noundef readonly captures(none) %2) local_unnamed_addr #0 {
  %4 = tail call ptr @wmem_packet_scope()
  %5 = tail call noalias dereferenceable_or_null(64) ptr @wmem_alloc(ptr noundef %4, i64 noundef 64) #10
  %6 = tail call ptr @wmem_packet_scope()
  %7 = tail call noalias ptr @wmem_strdup(ptr noundef %6, ptr noundef nonnull @.str.1)
  store ptr %7, ptr %5, align 8
  %8 = getelementptr inbounds nuw i8, ptr %1, i64 32
  %9 = load ptr, ptr %8, align 8
  %10 = tail call ptr @g_list_find_custom(ptr noundef %9, ptr noundef %5, ptr noundef nonnull @xmpp_element_t_cmp)
  %.not = icmp eq ptr %10, null
  br i1 %.not, label %.thread, label %11

11:                                               ; preds = %3
  %12 = load ptr, ptr %10, align 8
  %.not18 = icmp eq ptr %12, null
  br i1 %.not18, label %.thread, label %13

13:                                               ; preds = %11
  %14 = getelementptr inbounds nuw i8, ptr %0, i64 80
  %15 = load ptr, ptr %14, align 8
  %16 = getelementptr inbounds nuw i8, ptr %15, i64 57
  %17 = load i16, ptr %16, align 1
  %18 = and i16 %17, 8
  %.not19 = icmp eq i16 %18, 0
  br i1 %.not19, label %19, label %.thread

19:                                               ; preds = %13
  %20 = getelementptr inbounds nuw i8, ptr %1, i64 24
  %21 = load ptr, ptr %20, align 8
  %22 = tail call ptr @g_hash_table_lookup(ptr noundef %21, ptr noundef nonnull @.str)
  %.not.i = icmp eq ptr %22, null
  br i1 %.not.i, label %23, label %26

23:                                               ; preds = %19
  %24 = load ptr, ptr %20, align 8
  %25 = tail call ptr @g_hash_table_find(ptr noundef %24, ptr noundef nonnull @attr_find_pred, ptr noundef nonnull @.str)
  %.not9.i = icmp eq ptr %25, null
  br i1 %.not9.i, label %.thread, label %26

26:                                               ; preds = %23, %19
  %.012.i = phi ptr [ %25, %23 ], [ %22, %19 ]
  %27 = getelementptr inbounds nuw i8, ptr %.012.i, i64 24
  store i8 1, ptr %27, align 8
  %28 = getelementptr inbounds nuw i8, ptr %12, i64 24
  %29 = load ptr, ptr %28, align 8
  %30 = tail call ptr @g_hash_table_lookup(ptr noundef %29, ptr noundef nonnull @.str.2)
  %.not.i22 = icmp eq ptr %30, null
  br i1 %.not.i22, label %31, label %.critedge

31:                                               ; preds = %26
  %32 = load ptr, ptr %28, align 8
  %33 = tail call ptr @g_hash_table_find(ptr noundef %32, ptr noundef nonnull @attr_find_pred, ptr noundef nonnull @.str.2)
  %.not9.i26 = icmp eq ptr %33, null
  br i1 %.not9.i26, label %.thread, label %.critedge

.critedge:                                        ; preds = %31, %26
  %.012.i24 = phi ptr [ %33, %31 ], [ %30, %26 ]
  %34 = getelementptr inbounds nuw i8, ptr %.012.i24, i64 24
  store i8 1, ptr %34, align 8
  %35 = tail call ptr @wmem_file_scope()
  %36 = load ptr, ptr %.012.i, align 8
  %37 = tail call noalias ptr @wmem_strdup(ptr noundef %35, ptr noundef %36)
  %38 = tail call ptr @wmem_file_scope()
  %39 = load ptr, ptr %.012.i24, align 8
  %40 = tail call noalias ptr @wmem_strdup(ptr noundef %38, ptr noundef %39)
  %41 = getelementptr inbounds nuw i8, ptr %2, i64 8
  %42 = load ptr, ptr %41, align 8
  tail call void @wmem_tree_insert_string(ptr noundef %42, ptr noundef %37, ptr noundef %40, i32 noundef 1)
  br label %.thread

.thread:                                          ; preds = %31, %23, %3, %11, %13, %.critedge
  ret void
}